; Function Attrs: mustprogress uwtable
define void @_ZN5arrow8internal14DieWithMessageERKNSt7__cxx1112basic_stringIcSt11char_traitsIcESaIcEEE(ptr noundef nonnull readonly align 8 captures(none) dereferenceable(32) %0) local_unnamed_addr #0 personality ptr @__gxx_personality_v0 {
  %2 = alloca %"class.arrow::util::ArrowLog", align 8
  call void @llvm.lifetime.start.p0(i64 24, ptr nonnull %2) #14
  call void @_ZN5arrow4util8ArrowLogC1EPKciNS0_13ArrowLogLevelE(ptr noundef nonnull align 8 dereferenceable(17) %2, ptr noundef nonnull @.str, i32 noundef 27, i32 noundef 3)
  %3 = load ptr, ptr %2, align 8, !tbaa !3
  %4 = getelementptr inbounds nuw i8, ptr %3, i64 16
  %5 = load ptr, ptr %4, align 8
  %6 = invoke noundef zeroext i1 %5(ptr noundef nonnull align 8 dereferenceable(8) %2)
          to label %.noexc unwind label %16

.noexc:                                           ; preds = %1
  br i1 %6, label %7, label %_ZN5arrow4util12ArrowLogBaselsINSt7__cxx1112basic_stringIcSt11char_traitsIcESaIcEEEEERS1_RKT_.exit

7:                                                ; preds = %.noexc
  %8 = load ptr, ptr %2, align 8, !tbaa !3
  %9 = getelementptr inbounds nuw i8, ptr %8, i64 24
  %10 = load ptr, ptr %9, align 8
  %11 = invoke noundef nonnull align 8 dereferenceable(8) ptr %10(ptr noundef nonnull align 8 dereferenceable(8) %2)
          to label %.noexc2 unwind label %16

.noexc2:                                          ; preds = %7
  %12 = load ptr, ptr %0, align 8, !tbaa !6
  %13 = getelementptr inbounds nuw i8, ptr %0, i64 8
  %14 = load i64, ptr %13, align 8, !tbaa !13
  %15 = invoke noundef nonnull align 8 dereferenceable(8) ptr @_ZSt16__ostream_insertIcSt11char_traitsIcEERSt13basic_ostreamIT_T0_ES6_PKS3_l(ptr noundef nonnull align 8 dereferenceable(8) %11, ptr noundef %12, i64 noundef %14)
          to label %_ZN5arrow4util12ArrowLogBaselsINSt7__cxx1112basic_stringIcSt11char_traitsIcESaIcEEEEERS1_RKT_.exit unwind label %16

_ZN5arrow4util12ArrowLogBaselsINSt7__cxx1112basic_stringIcSt11char_traitsIcESaIcEEEEERS1_RKT_.exit: ; preds = %.noexc, %.noexc2
  call void @_ZN5arrow4util8ArrowLogD1Ev(ptr noundef nonnull align 8 dereferenceable(17) %2) #14
  call void @llvm.lifetime.end.p0(i64 24, ptr nonnull %2) #14
  ret void

16:                                               ; preds = %.noexc2, %7, %1
  %17 = landingpad { ptr, i32 }
          cleanup
  call void @_ZN5arrow4util8ArrowLogD1Ev(ptr noundef nonnull align 8 dereferenceable(17) %2) #14
  call void @llvm.lifetime.end.p0(i64 24, ptr nonnull %2) #14
  resume { ptr, i32 } %17
}